target datalayout = "e-m:e-p270:32:32-p271:32:32-p272:64:64-i64:64-i128:128-f80:128-n8:16:32:64-S128"
target triple = "x86_64-pc-linux-gnu"

%struct.Curl_easy = type { i32, i64, i64, ptr, %struct.Curl_llist_node, %struct.Curl_llist_node, i32, i32, %struct.Curl_message, %struct.easy_pollset, %struct.Names, ptr, ptr, ptr, ptr, %struct.SingleRequest, %struct.UserDefined, ptr, ptr, ptr, %struct.Progress, %struct.UrlState, ptr, %struct.PureInfo, %struct.curl_tlssessioninfo }
%struct.Curl_llist_node = type { ptr, ptr, ptr, ptr }
%struct.Curl_message = type { %struct.Curl_llist_node, %struct.CURLMsg }
%struct.CURLMsg = type { i32, ptr, %union.anon }
%union.anon = type { ptr }
%struct.easy_pollset = type { [5 x i32], i32, [5 x i8] }
%struct.Names = type { ptr, i32 }
%struct.SingleRequest = type <{ i64, i64, i64, i64, %struct.curltime, i32, i32, i32, i32, i64, i32, i32, i8, i8, [2 x i8], i32, ptr, ptr, %struct.bufq, i64, i64, ptr, ptr, %union.anon.0, ptr, i8, i32, [3 x i8] }>
%struct.curltime = type { i64, i32 }
%struct.bufq = type { ptr, ptr, ptr, ptr, i64, i64, i64, i32 }
%union.anon.0 = type { ptr }
%struct.UserDefined = type <{ ptr, ptr, ptr, ptr, ptr, ptr, i64, i64, i64, ptr, ptr, i64, ptr, ptr, ptr, ptr, ptr, ptr, ptr, ptr, ptr, ptr, ptr, ptr, ptr, ptr, ptr, ptr, ptr, ptr, ptr, ptr, ptr, ptr, ptr, i64, i64, i64, i64, i64, i64, i64, i64, i64, ptr, ptr, %struct.curl_mimepart, ptr, ptr, ptr, i64, %struct.ssl_config_data, %struct.ssl_config_data, ptr, i16, i8, i8, %struct.ssl_general_config, i32, i32, i32, [4 x i8], ptr, ptr, i64, i32, i8, i8, i8, i8, ptr, ptr, ptr, i32, [4 x i8], [74 x ptr], [8 x ptr], i32, i32, i32, [4 x i8], ptr, i32, [4 x i8], ptr, ptr, ptr, ptr, ptr, i32, i32, i32, i32, i32, i32, i32, i32, i64, ptr, ptr, i64, ptr, i64, ptr, ptr, ptr, ptr, i32, i16, i16, i16, i8, i8, i8, i8, i8, i8, i8, i8, i64, [6 x i8] }>
%struct.curl_mimepart = type { ptr, ptr, i32, i32, ptr, ptr, ptr, ptr, ptr, ptr, ptr, ptr, ptr, ptr, ptr, i64, %struct.mime_state, ptr, %struct.mime_encoder_state, i64 }
%struct.mime_state = type { i32, ptr, i64 }
%struct.mime_encoder_state = type { i64, i64, i64, [256 x i8] }
%struct.ssl_config_data = type { %struct.ssl_primary_config, i64, ptr, ptr, ptr, ptr, ptr, ptr, ptr, i16 }
%struct.ssl_primary_config = type { ptr, ptr, ptr, ptr, ptr, ptr, ptr, ptr, ptr, ptr, ptr, ptr, ptr, ptr, i8, i32, i8, i8 }
%struct.ssl_general_config = type { i32 }
%struct.Progress = type { i64, %struct.pgrs_dir, %struct.pgrs_dir, i64, i64, i32, i32, i64, i64, i64, i64, i64, i64, i64, i64, i64, %struct.curltime, %struct.curltime, %struct.curltime, %struct.curltime, %struct.curltime, [6 x i64], [6 x %struct.curltime], i32, i8 }
%struct.pgrs_dir = type { i64, i64, i64, %struct.pgrs_measure }
%struct.pgrs_measure = type { %struct.curltime, i64 }
%struct.UrlState = type { %struct.curltime, i64, i64, %struct.dynbuf, ptr, i64, ptr, i32, i32, i32, ptr, i32, i64, i32, ptr, %struct.digestdata, %struct.digestdata, %struct.auth, %struct.auth, %struct.Curl_async, ptr, i8, %struct.curltime, %struct.Curl_tree, %struct.Curl_llist, [15 x %struct.time_node], ptr, ptr, i64, i64, i64, i64, [32 x i8], i64, ptr, ptr, ptr, %struct.urlpieces, ptr, ptr, ptr, ptr, ptr, i64, %struct.dynbuf, %struct.Curl_llist, [2 x %struct.curl_header], ptr, i32, ptr, ptr, %struct.store_netrc, %struct.dynamically_allocated_data, i8, i8, i8, i8, i32 }
%struct.digestdata = type { ptr, ptr, ptr, ptr, ptr, ptr, i32, i8, i8 }
%struct.auth = type { i64, i64, i64, i8 }
%struct.Curl_async = type { ptr, ptr, ptr, ptr, i32, i32, i8 }
%struct.Curl_tree = type { ptr, ptr, ptr, ptr, %struct.curltime, ptr }
%struct.time_node = type { %struct.Curl_llist_node, %struct.curltime, i32 }
%struct.urlpieces = type { ptr, ptr, ptr, ptr, ptr, ptr, ptr, ptr }
%struct.dynbuf = type { ptr, i64, i64, i64 }
%struct.Curl_llist = type { ptr, ptr, ptr, i64 }
%struct.curl_header = type { ptr, ptr, i64, i64, i32, ptr }
%struct.store_netrc = type { %struct.dynbuf, ptr, i8 }
%struct.dynamically_allocated_data = type { ptr, ptr, ptr, ptr, ptr, ptr, ptr, ptr, ptr, ptr, ptr, ptr, ptr, ptr }
%struct.PureInfo = type { i32, i32, i32, i64, i64, i64, i64, i64, i64, i64, ptr, ptr, i64, i32, %struct.ip_quadruple, i32, ptr, i32, %struct.curl_certinfo, i32, i8 }
%struct.ip_quadruple = type { [46 x i8], [46 x i8], i32, i32 }
%struct.curl_certinfo = type { i32, ptr }
%struct.curl_tlssessioninfo = type { i32, ptr }

@.str = private unnamed_addr constant [7 x i8] c"Digest\00", align 1

; Function Attrs: nounwind uwtable
define hidden i32 @Curl_input_digest(ptr noundef %0, i1 noundef zeroext %1, ptr noundef %2) #0 {
  %4 = alloca i32, align 4
  %5 = alloca ptr, align 8
  %6 = alloca i8, align 1
  %7 = alloca ptr, align 8
  %8 = alloca ptr, align 8
  %9 = alloca i32, align 4
  store ptr %0, ptr %5, align 8, !tbaa !3
  %10 = zext i1 %1 to i8
  store i8 %10, ptr %6, align 1, !tbaa !8
  store ptr %2, ptr %7, align 8, !tbaa !10
  call void @llvm.lifetime.start.p0(i64 8, ptr %8) #4
  %11 = load i8, ptr %6, align 1, !tbaa !8, !range !12, !noundef !13
  %12 = trunc i8 %11 to i1
  br i1 %12, label %13, label %17

13:                                               ; preds = %3
  %14 = load ptr, ptr %5, align 8, !tbaa !3
  %15 = getelementptr inbounds nuw %struct.Curl_easy, ptr %14, i32 0, i32 21
  %16 = getelementptr inbounds nuw %struct.UrlState, ptr %15, i32 0, i32 16
  store ptr %16, ptr %8, align 8, !tbaa !14
  br label %21

17:                                               ; preds = %3
  %18 = load ptr, ptr %5, align 8, !tbaa !3
  %19 = getelementptr inbounds nuw %struct.Curl_easy, ptr %18, i32 0, i32 21
  %20 = getelementptr inbounds nuw %struct.UrlState, ptr %19, i32 0, i32 15
  store ptr %20, ptr %8, align 8, !tbaa !14
  br label %21

21:                                               ; preds = %17, %13
  %22 = load ptr, ptr %7, align 8, !tbaa !10
  %23 = call i32 @curl_strnequal(ptr noundef %22, ptr noundef @.str, i64 noundef 6)
  %24 = icmp ne i32 %23, 0
  br i1 %24, label %25, label %37

25:                                               ; preds = %21
  %26 = load ptr, ptr %7, align 8, !tbaa !10
  %27 = getelementptr inbounds i8, ptr %26, i64 6
  %28 = load i8, ptr %27, align 1, !tbaa !16
  %29 = sext i8 %28 to i32
  %30 = icmp eq i32 %29, 32
  br i1 %30, label %38, label %31

31:                                               ; preds = %25
  %32 = load ptr, ptr %7, align 8, !tbaa !10
  %33 = getelementptr inbounds i8, ptr %32, i64 6
  %34 = load i8, ptr %33, align 1, !tbaa !16
  %35 = sext i8 %34 to i32
  %36 = icmp eq i32 %35, 9
  br i1 %36, label %38, label %37

37:                                               ; preds = %31, %21
  store i32 61, ptr %4, align 4
  store i32 1, ptr %9, align 4
  br label %67

38:                                               ; preds = %31, %25
  %39 = load ptr, ptr %7, align 8, !tbaa !10
  %40 = getelementptr inbounds nuw i8, ptr %39, i64 6
  store ptr %40, ptr %7, align 8, !tbaa !10
  br label %41

41:                                               ; preds = %60, %38
  %42 = load ptr, ptr %7, align 8, !tbaa !10
  %43 = load i8, ptr %42, align 1, !tbaa !16
  %44 = sext i8 %43 to i32
  %45 = icmp ne i32 %44, 0
  br i1 %45, label %46, label %58

46:                                               ; preds = %41
  %47 = load ptr, ptr %7, align 8, !tbaa !10
  %48 = load i8, ptr %47, align 1, !tbaa !16
  %49 = sext i8 %48 to i32
  %50 = icmp eq i32 %49, 32
  br i1 %50, label %56, label %51

51:                                               ; preds = %46
  %52 = load ptr, ptr %7, align 8, !tbaa !10
  %53 = load i8, ptr %52, align 1, !tbaa !16
  %54 = sext i8 %53 to i32
  %55 = icmp eq i32 %54, 9
  br label %56

56:                                               ; preds = %51, %46
  %57 = phi i1 [ true, %46 ], [ %55, %51 ]
  br label %58

58:                                               ; preds = %56, %41
  %59 = phi i1 [ false, %41 ], [ %57, %56 ]
  br i1 %59, label %60, label %63

60:                                               ; preds = %58
  %61 = load ptr, ptr %7, align 8, !tbaa !10
  %62 = getelementptr inbounds nuw i8, ptr %61, i32 1
  store ptr %62, ptr %7, align 8, !tbaa !10
  br label %41, !llvm.loop !17

63:                                               ; preds = %58
  %64 = load ptr, ptr %7, align 8, !tbaa !10
  %65 = load ptr, ptr %8, align 8, !tbaa !14
  %66 = call i32 @Curl_auth_decode_digest_http_message(ptr noundef %64, ptr noundef %65)
  store i32 %66, ptr %4, align 4
  store i32 1, ptr %9, align 4
  br label %67

67:                                               ; preds = %63, %37
  call void @llvm.lifetime.end.p0(i64 8, ptr %8) #4
  %68 = load i32, ptr %4, align 4
  ret i32 %68
}