; Function Attrs: nounwind uwtable
define hidden i32 @Curl_input_digest(ptr noundef %0, i1 noundef zeroext %1, ptr noundef %2) local_unnamed_addr #0 {
  %.0.v = select i1 %1, i64 3328, i64 3272
  %.0 = getelementptr inbounds nuw i8, ptr %0, i64 %.0.v
  %4 = tail call i32 @curl_strnequal(ptr noundef %2, ptr noundef nonnull @.str, i64 noundef 6) #4
  %.not = icmp eq i32 %4, 0
  br i1 %.not, label %12, label %5

5:                                                ; preds = %3
  %6 = getelementptr inbounds nuw i8, ptr %2, i64 6
  %7 = load i8, ptr %6, align 1, !tbaa !3
  switch i8 %7, label %12 [
    i8 32, label %.preheader
    i8 9, label %.preheader
  ]

.preheader:                                       ; preds = %5, %5
  br label %8

8:                                                ; preds = %.preheader, %.critedge2
  %9 = phi i8 [ %.pre, %.critedge2 ], [ %7, %.preheader ]
  %.015 = phi ptr [ %10, %.critedge2 ], [ %6, %.preheader ]
  switch i8 %9, label %.critedge [
    i8 9, label %.critedge2
    i8 32, label %.critedge2
  ]

.critedge2:                                       ; preds = %8, %8
  %10 = getelementptr inbounds nuw i8, ptr %.015, i64 1
  %.pre = load i8, ptr %10, align 1, !tbaa !3
  br label %8, !llvm.loop !6

.critedge:                                        ; preds = %8
  %11 = tail call i32 @Curl_auth_decode_digest_http_message(ptr noundef nonnull %.015, ptr noundef nonnull %.0) #4
  br label %12

12:                                               ; preds = %3, %5, %.critedge
  %.016 = phi i32 [ %11, %.critedge ], [ 61, %5 ], [ 61, %3 ]
  ret i32 %.016
}